; Function Attrs: mustprogress nofree norecurse nosync nounwind willreturn memory(readwrite, inaccessiblemem: none) uwtable
define internal void @_ZNK5faiss20LocalSearchQuantizer8evaluateEPKiPKfmPf.omp_outlined.omp.reduction.reduction_func(ptr nocapture noundef readonly %0, ptr nocapture noundef readonly %1) #16 {
  %3 = load ptr, ptr %1, align 8
  %4 = load ptr, ptr %0, align 8
  %5 = load float, ptr %4, align 4
  %6 = load float, ptr %3, align 4
  %7 = fadd float %5, %6
  store float %7, ptr %4, align 4
  ret void
}